target datalayout = "e-m:e-p270:32:32-p271:32:32-p272:64:64-i64:64-i128:128-f80:128-n8:16:32:64-S128"
target triple = "x86_64-pc-linux-gnu"

%struct.slurm_conf_t = type { i64, ptr, i16, ptr, ptr, ptr, ptr, ptr, i16, ptr, ptr, ptr, ptr, ptr, ptr, ptr, i16, ptr, ptr, ptr, ptr, i16, ptr, ptr, ptr, i64, ptr, ptr, ptr, ptr, i16, ptr, ptr, i16, i32, ptr, i32, ptr, i32, i32, ptr, ptr, i64, i64, ptr, i16, i16, ptr, i32, i32, ptr, i32, ptr, i32, i16, i16, i16, ptr, i16, i16, ptr, ptr, i32, i16, i16, ptr, i32, i16, ptr, ptr, ptr, ptr, i16, ptr, ptr, ptr, ptr, i32, ptr, ptr, ptr, ptr, i16, i16, ptr, i32, i32, i32, i16, i16, ptr, ptr, i16, ptr, ptr, i32, i32, i32, i32, i32, i64, i32, i32, i16, ptr, ptr, i32, ptr, ptr, ptr, i16, i32, ptr, ptr, i16, ptr, ptr, i32, i16, ptr, ptr, ptr, ptr, i32, i32, i16, i16, i32, ptr, i16, ptr, i32, i32, i32, i32, i32, i32, ptr, i16, ptr, ptr, i32, i16, ptr, i32, i16, i16, ptr, ptr, ptr, i16, ptr, ptr, ptr, ptr, i16, i16, ptr, i16, ptr, i16, ptr, i16, ptr, i16, ptr, ptr, ptr, ptr, i16, ptr, ptr, ptr, i32, ptr, i32, ptr, ptr, i16, ptr, ptr, i32, i16, ptr, ptr, i16, i16, ptr, i16, ptr, ptr, ptr, i32, ptr, i16, i16, ptr, ptr, ptr, ptr, ptr, ptr, ptr, ptr, i16, i32, i16, ptr, ptr, ptr, ptr, i32, ptr, ptr, ptr, i16, ptr, ptr, ptr, i16, ptr, i16, ptr, i16, i16, ptr }
%struct.auth_plugin_types_t = type { i32, ptr }
%struct.auth_ops_t = type { ptr, ptr, ptr, ptr, ptr, ptr, ptr, ptr, ptr, ptr, ptr, ptr, ptr, ptr, ptr, ptr }

@.str.4 = private unnamed_addr constant [8 x i8] c"unknown\00", align 1
@g_context_num = internal global i32 -1, align 4
@ops = internal global ptr null, align 8
@.str.6 = private unnamed_addr constant [5 x i8] c"auth\00", align 1
@auth_g_init.daemon_run = internal global i8 0, align 1
@auth_g_init.daemon_set = internal global i8 0, align 1
@.str.7 = private unnamed_addr constant [32 x i8] c"%s: pthread_rwlock_wrlock(): %m\00", align 1
@__func__.auth_g_init = private unnamed_addr constant [12 x i8] c"auth_g_init\00", align 1
@.str.8 = private unnamed_addr constant [10 x i8] c"SLURM_JWT\00", align 1
@slurm_conf = external global %struct.slurm_conf_t, align 8
@.str.9 = private unnamed_addr constant [15 x i8] c"SLURM_SACK_KEY\00", align 1
@.str.10 = private unnamed_addr constant [16 x i8] c"SLURM_SACK_JWKS\00", align 1
@.str.11 = private unnamed_addr constant [19 x i8] c"slurmctld,slurmdbd\00", align 1
@.str.12 = private unnamed_addr constant [7 x i8] c"auth.c\00", align 1
@g_context = internal global ptr null, align 8
@.str.13 = private unnamed_addr constant [6 x i8] c"auth/\00", align 1
@.str.14 = private unnamed_addr constant [8 x i8] c"auth/%s\00", align 1
@syms = internal global [16 x ptr] [ptr @.str.28, ptr @.str.29, ptr @.str.30, ptr @.str.31, ptr @.str.32, ptr @.str.33, ptr @.str.34, ptr @.str.35, ptr @.str.36, ptr @.str.37, ptr @.str.38, ptr @.str.39, ptr @.str.40, ptr @.str.41, ptr @.str.42, ptr @.str.43], align 16
@.str.15 = private unnamed_addr constant [32 x i8] c"cannot create %s context for %s\00", align 1
@.str.16 = private unnamed_addr constant [2 x i8] c",\00", align 1
@at_forked = internal global i8 0, align 1
@.str.17 = private unnamed_addr constant [32 x i8] c"%s: pthread_rwlock_unlock(): %m\00", align 1
@context_lock = internal global { { i32, i32, i32, i32, i32, i32, i32, i32, i8, [7 x i8], i64, i32, [4 x i8] } } zeroinitializer, align 8

; Function Attrs: nounwind uwtable
define dso_local ptr @auth_get_plugin_name(i32 noundef %0) #0 {
  %2 = alloca ptr, align 8
  %3 = alloca i32, align 4
  %4 = alloca i32, align 4
  %5 = alloca i32, align 4
  store i32 %0, ptr %3, align 4
  call void @llvm.lifetime.start.p0(i64 4, ptr %4) #6
  store i32 0, ptr %4, align 4
  br label %6

6:                                                ; preds = %26, %1
  %7 = load i32, ptr %4, align 4
  %8 = sext i32 %7 to i64
  %9 = icmp ult i64 %8, 4
  br i1 %9, label %11, label %10

10:                                               ; preds = %6
  store i32 2, ptr %5, align 4
  br label %29

11:                                               ; preds = %6
  %12 = load i32, ptr %3, align 4
  %13 = load i32, ptr %4, align 4
  %14 = sext i32 %13 to i64
  %15 = getelementptr inbounds [4 x %struct.auth_plugin_types_t], ptr @auth_plugin_types, i64 0, i64 %14
  %16 = getelementptr inbounds nuw %struct.auth_plugin_types_t, ptr %15, i32 0, i32 0
  %17 = load i32, ptr %16, align 16
  %18 = icmp eq i32 %12, %17
  br i1 %18, label %19, label %25

19:                                               ; preds = %11
  %20 = load i32, ptr %4, align 4
  %21 = sext i32 %20 to i64
  %22 = getelementptr inbounds [4 x %struct.auth_plugin_types_t], ptr @auth_plugin_types, i64 0, i64 %21
  %23 = getelementptr inbounds nuw %struct.auth_plugin_types_t, ptr %22, i32 0, i32 1
  %24 = load ptr, ptr %23, align 8
  store ptr %24, ptr %2, align 8
  store i32 1, ptr %5, align 4
  br label %29

25:                                               ; preds = %11
  br label %26

26:                                               ; preds = %25
  %27 = load i32, ptr %4, align 4
  %28 = add nsw i32 %27, 1
  store i32 %28, ptr %4, align 4
  br label %6, !llvm.loop !8

29:                                               ; preds = %19, %10
  call void @llvm.lifetime.end.p0(i64 4, ptr %4) #6
  %30 = load i32, ptr %5, align 4
  switch i32 %30, label %34 [
    i32 2, label %31
    i32 1, label %32
  ]

31:                                               ; preds = %29
  store ptr @.str.4, ptr %2, align 8
  br label %32

32:                                               ; preds = %31, %29
  %33 = load ptr, ptr %2, align 8
  ret ptr %33

34:                                               ; preds = %29
  unreachable
}

; Function Attrs: nounwind uwtable
define dso_local i32 @auth_g_init() #0 {
  %1 = alloca i32, align 4
  %2 = alloca ptr, align 8
  %3 = alloca ptr, align 8
  %4 = alloca ptr, align 8
  %5 = alloca ptr, align 8
  %6 = alloca ptr, align 8
  %7 = alloca i32, align 4
  %8 = alloca i32, align 4
  call void @llvm.lifetime.start.p0(i64 4, ptr %1) #6
  store i32 0, ptr %1, align 4
  call void @llvm.lifetime.start.p0(i64 8, ptr %2) #6
  store ptr null, ptr %2, align 8
  call void @llvm.lifetime.start.p0(i64 8, ptr %3) #6
  store ptr null, ptr %3, align 8
  call void @llvm.lifetime.start.p0(i64 8, ptr %4) #6
  call void @llvm.lifetime.start.p0(i64 8, ptr %5) #6
  store ptr null, ptr %5, align 8
  call void @llvm.lifetime.start.p0(i64 8, ptr %6) #6
  store ptr @.str.6, ptr %6, align 8
  br label %9

9:                                                ; preds = %0
  call void @llvm.lifetime.start.p0(i64 4, ptr %7) #6
  %10 = call i32 @pthread_rwlock_wrlock(ptr noundef @context_lock) #6
  store i32 %10, ptr %7, align 4
  %11 = load i32, ptr %7, align 4
  %12 = icmp ne i32 %11, 0
  br i1 %12, label %13, label %16

13:                                               ; preds = %9
  %14 = load i32, ptr %7, align 4
  %15 = call ptr @__errno_location() #8
  store i32 %14, ptr %15, align 4
  call void (ptr, ...) @fatal_abort(ptr noundef @.str.7, ptr noundef @__func__.auth_g_init) #7
  unreachable

16:                                               ; preds = %9
  call void @llvm.lifetime.end.p0(i64 4, ptr %7) #6
  br label %17

17:                                               ; preds = %16
  br label %18

18:                                               ; preds = %17
  %19 = load i32, ptr @g_context_num, align 4
  %20 = icmp sgt i32 %19, 0
  br i1 %20, label %21, label %22

21:                                               ; preds = %18
  br label %106

22:                                               ; preds = %18
  %23 = call ptr @getenv(ptr noundef @.str.8) #6
  %24 = icmp ne ptr %23, null
  br i1 %24, label %25, label %28

25:                                               ; preds = %22
  call void @slurm_xfree(ptr noundef getelementptr inbounds nuw (%struct.slurm_conf_t, ptr @slurm_conf, i32 0, i32 20))
  %26 = call ptr @auth_get_plugin_name(i32 noundef 102)
  %27 = call ptr @xstrdup(ptr noundef %26)
  store ptr %27, ptr getelementptr inbounds nuw (%struct.slurm_conf_t, ptr @slurm_conf, i32 0, i32 20), align 8
  br label %28

28:                                               ; preds = %25, %22
  %29 = call ptr @getenv(ptr noundef @.str.9) #6
  %30 = icmp ne ptr %29, null
  br i1 %30, label %34, label %31

31:                                               ; preds = %28
  %32 = call ptr @getenv(ptr noundef @.str.10) #6
  %33 = icmp ne ptr %32, null
  br i1 %33, label %34, label %37

34:                                               ; preds = %31, %28
  call void @slurm_xfree(ptr noundef getelementptr inbounds nuw (%struct.slurm_conf_t, ptr @slurm_conf, i32 0, i32 20))
  %35 = call ptr @auth_get_plugin_name(i32 noundef 103)
  %36 = call ptr @xstrdup(ptr noundef %35)
  store ptr %36, ptr getelementptr inbounds nuw (%struct.slurm_conf_t, ptr @slurm_conf, i32 0, i32 20), align 8
  br label %37

37:                                               ; preds = %34, %31
  %38 = load ptr, ptr getelementptr inbounds nuw (%struct.slurm_conf_t, ptr @slurm_conf, i32 0, i32 20), align 8
  store ptr %38, ptr %4, align 8
  %39 = load ptr, ptr %4, align 8
  %40 = icmp ne ptr %39, null
  br i1 %40, label %41, label %47

41:                                               ; preds = %37
  %42 = load ptr, ptr %4, align 8
  %43 = getelementptr inbounds i8, ptr %42, i64 0
  %44 = load i8, ptr %43, align 1
  %45 = sext i8 %44 to i32
  %46 = icmp eq i32 %45, 0
  br i1 %46, label %47, label %48

47:                                               ; preds = %41, %37
  br label %106

48:                                               ; preds = %41
  %49 = call zeroext i1 @run_in_daemon(ptr noundef @auth_g_init.daemon_run, ptr noundef @auth_g_init.daemon_set, ptr noundef @.str.11)
  br i1 %49, label %50, label %53

50:                                               ; preds = %48
  %51 = load ptr, ptr getelementptr inbounds nuw (%struct.slurm_conf_t, ptr @slurm_conf, i32 0, i32 17), align 8
  %52 = call ptr @xstrdup(ptr noundef %51)
  store ptr %52, ptr %2, align 8
  store ptr %52, ptr %3, align 8
  br label %53

53:                                               ; preds = %50, %48
  store i32 0, ptr @g_context_num, align 4
  br label %54

54:                                               ; preds = %104, %53
  %55 = load ptr, ptr %4, align 8
  %56 = icmp ne ptr %55, null
  br i1 %56, label %57, label %105

57:                                               ; preds = %54
  %58 = load i32, ptr @g_context_num, align 4
  %59 = add nsw i32 %58, 1
  %60 = sext i32 %59 to i64
  %61 = call ptr @slurm_xrecalloc(ptr noundef @ops, i64 noundef %60, i64 noundef 128, i1 noundef zeroext true, i1 noundef zeroext false, ptr noundef @.str.12, i32 noundef 224, ptr noundef @__func__.auth_g_init)
  %62 = load i32, ptr @g_context_num, align 4
  %63 = add nsw i32 %62, 1
  %64 = sext i32 %63 to i64
  %65 = call ptr @slurm_xrecalloc(ptr noundef @g_context, i64 noundef %64, i64 noundef 24, i1 noundef zeroext true, i1 noundef zeroext false, ptr noundef @.str.12, i32 noundef 226, ptr noundef @__func__.auth_g_init)
  %66 = load ptr, ptr %4, align 8
  %67 = call i32 @xstrncmp(ptr noundef %66, ptr noundef @.str.13, i64 noundef 5)
  %68 = icmp ne i32 %67, 0
  br i1 %68, label %72, label %69

69:                                               ; preds = %57
  %70 = load ptr, ptr %4, align 8
  %71 = getelementptr inbounds i8, ptr %70, i64 5
  store ptr %71, ptr %4, align 8
  br label %72

72:                                               ; preds = %69, %57
  %73 = load ptr, ptr %4, align 8
  %74 = call ptr (ptr, ...) @xstrdup_printf(ptr noundef @.str.14, ptr noundef %73)
  store ptr %74, ptr %4, align 8
  %75 = load ptr, ptr %6, align 8
  %76 = load ptr, ptr %4, align 8
  %77 = load ptr, ptr @ops, align 8
  %78 = load i32, ptr @g_context_num, align 4
  %79 = sext i32 %78 to i64
  %80 = getelementptr inbounds %struct.auth_ops_t, ptr %77, i64 %79
  %81 = call ptr @plugin_context_create(ptr noundef %75, ptr noundef %76, ptr noundef %80, ptr noundef @syms, i64 noundef 128)
  %82 = load ptr, ptr @g_context, align 8
  %83 = load i32, ptr @g_context_num, align 4
  %84 = sext i32 %83 to i64
  %85 = getelementptr inbounds ptr, ptr %82, i64 %84
  store ptr %81, ptr %85, align 8
  %86 = load ptr, ptr @g_context, align 8
  %87 = load i32, ptr @g_context_num, align 4
  %88 = sext i32 %87 to i64
  %89 = getelementptr inbounds ptr, ptr %86, i64 %88
  %90 = load ptr, ptr %89, align 8
  %91 = icmp ne ptr %90, null
  br i1 %91, label %96, label %92

92:                                               ; preds = %72
  %93 = load ptr, ptr %6, align 8
  %94 = load ptr, ptr %4, align 8
  %95 = call i32 (ptr, ...) @error(ptr noundef @.str.15, ptr noundef %93, ptr noundef %94)
  store i32 -1, ptr %1, align 4
  call void @slurm_xfree(ptr noundef %4)
  br label %106

96:                                               ; preds = %72
  %97 = load i32, ptr @g_context_num, align 4
  %98 = add nsw i32 %97, 1
  store i32 %98, ptr @g_context_num, align 4
  call void @slurm_xfree(ptr noundef %4)
  %99 = load ptr, ptr %2, align 8
  %100 = icmp ne ptr %99, null
  br i1 %100, label %101, label %104

101:                                              ; preds = %96
  %102 = load ptr, ptr %3, align 8
  %103 = call ptr @strtok_r(ptr noundef %102, ptr noundef @.str.16, ptr noundef %5) #6
  store ptr %103, ptr %4, align 8
  store ptr null, ptr %3, align 8
  br label %104

104:                                              ; preds = %101, %96
  br label %54, !llvm.loop !14

105:                                              ; preds = %54
  br label %106

106:                                              ; preds = %105, %92, %47, %21
  %107 = load i8, ptr @at_forked, align 1, !range !11, !noundef !12
  %108 = trunc i8 %107 to i1
  br i1 %108, label %111, label %109

109:                                              ; preds = %106
  %110 = call i32 @pthread_atfork(ptr noundef null, ptr noundef null, ptr noundef @_atfork_child) #6
  store i8 1, ptr @at_forked, align 1
  br label %111

111:                                              ; preds = %109, %106
  call void @slurm_xfree(ptr noundef %2)
  br label %112

112:                                              ; preds = %111
  call void @llvm.lifetime.start.p0(i64 4, ptr %8) #6
  %113 = call i32 @pthread_rwlock_unlock(ptr noundef @context_lock) #6
  store i32 %113, ptr %8, align 4
  %114 = load i32, ptr %8, align 4
  %115 = icmp ne i32 %114, 0
  br i1 %115, label %116, label %119

116:                                              ; preds = %112
  %117 = load i32, ptr %8, align 4
  %118 = call ptr @__errno_location() #8
  store i32 %117, ptr %118, align 4
  call void (ptr, ...) @fatal_abort(ptr noundef @.str.17, ptr noundef @__func__.auth_g_init) #7
  unreachable

119:                                              ; preds = %112
  call void @llvm.lifetime.end.p0(i64 4, ptr %8) #6
  br label %120

120:                                              ; preds = %119
  br label %121

121:                                              ; preds = %120
  %122 = load i32, ptr %1, align 4
  call void @llvm.lifetime.end.p0(i64 8, ptr %6) #6
  call void @llvm.lifetime.end.p0(i64 8, ptr %5) #6
  call void @llvm.lifetime.end.p0(i64 8, ptr %4) #6
  call void @llvm.lifetime.end.p0(i64 8, ptr %3) #6
  call void @llvm.lifetime.end.p0(i64 8, ptr %2) #6
  call void @llvm.lifetime.end.p0(i64 4, ptr %1) #6
  ret i32 %122
}