; Function Attrs: nounwind uwtable
define dso_local range(i32 -1, 1) i32 @auth_g_init() local_unnamed_addr #2 {
  %1 = alloca ptr, align 8
  %2 = alloca ptr, align 8
  %3 = alloca ptr, align 8
  call void @llvm.lifetime.start.p0(i64 8, ptr nonnull %1) #12
  store ptr null, ptr %1, align 8
  call void @llvm.lifetime.start.p0(i64 8, ptr nonnull %2) #12
  call void @llvm.lifetime.start.p0(i64 8, ptr nonnull %3) #12
  store ptr null, ptr %3, align 8
  %4 = tail call i32 @pthread_rwlock_wrlock(ptr noundef nonnull @context_lock) #12
  %.not = icmp eq i32 %4, 0
  br i1 %.not, label %7, label %5

5:                                                ; preds = %0
  %6 = tail call ptr @__errno_location() #13
  store i32 %4, ptr %6, align 4
  tail call void (ptr, ...) @fatal_abort(ptr noundef nonnull @.str.7, ptr noundef nonnull @__func__.auth_g_init) #11
  unreachable

7:                                                ; preds = %0
  %8 = load i32, ptr @g_context_num, align 4
  %9 = icmp sgt i32 %8, 0
  br i1 %9, label %.loopexit, label %10

10:                                               ; preds = %7
  %11 = tail call ptr @getenv(ptr noundef nonnull @.str.8) #12
  %.not11 = icmp eq ptr %11, null
  br i1 %.not11, label %22, label %12

12:                                               ; preds = %10
  tail call void @slurm_xfree(ptr noundef nonnull getelementptr inbounds nuw (i8, ptr @slurm_conf, i64 160)) #12
  br label %14

13:                                               ; preds = %14
  %indvars.iv.next.i = add nuw nsw i64 %indvars.iv.i, 1
  %exitcond.i = icmp eq i64 %indvars.iv.next.i, 4
  br i1 %exitcond.i, label %auth_get_plugin_name.exit, label %14, !llvm.loop !8

14:                                               ; preds = %13, %12
  %indvars.iv.i = phi i64 [ 0, %12 ], [ %indvars.iv.next.i, %13 ]
  %15 = getelementptr inbounds nuw [4 x %struct.auth_plugin_types_t], ptr @auth_plugin_types, i64 0, i64 %indvars.iv.i
  %16 = load i32, ptr %15, align 16
  %17 = icmp eq i32 %16, 102
  br i1 %17, label %18, label %13

18:                                               ; preds = %14
  %19 = getelementptr inbounds nuw i8, ptr %15, i64 8
  %20 = load ptr, ptr %19, align 8
  br label %auth_get_plugin_name.exit

auth_get_plugin_name.exit:                        ; preds = %13, %18
  %spec.select.i = phi ptr [ %20, %18 ], [ @.str.4, %13 ]
  %21 = tail call ptr @xstrdup(ptr noundef %spec.select.i) #12
  store ptr %21, ptr getelementptr inbounds nuw (i8, ptr @slurm_conf, i64 160), align 8
  br label %22

22:                                               ; preds = %auth_get_plugin_name.exit, %10
  %23 = tail call ptr @getenv(ptr noundef nonnull @.str.9) #12
  %.not12 = icmp eq ptr %23, null
  br i1 %.not12, label %24, label %26

24:                                               ; preds = %22
  %25 = tail call ptr @getenv(ptr noundef nonnull @.str.10) #12
  %.not13 = icmp eq ptr %25, null
  br i1 %.not13, label %thread-pre-split, label %26

26:                                               ; preds = %24, %22
  tail call void @slurm_xfree(ptr noundef nonnull getelementptr inbounds nuw (i8, ptr @slurm_conf, i64 160)) #12
  br label %28

27:                                               ; preds = %28
  %indvars.iv.next.i22 = add nuw nsw i64 %indvars.iv.i21, 1
  %exitcond.i23 = icmp eq i64 %indvars.iv.next.i22, 4
  br i1 %exitcond.i23, label %auth_get_plugin_name.exit25, label %28, !llvm.loop !8

28:                                               ; preds = %27, %26
  %indvars.iv.i21 = phi i64 [ 0, %26 ], [ %indvars.iv.next.i22, %27 ]
  %29 = getelementptr inbounds nuw [4 x %struct.auth_plugin_types_t], ptr @auth_plugin_types, i64 0, i64 %indvars.iv.i21
  %30 = load i32, ptr %29, align 16
  %31 = icmp eq i32 %30, 103
  br i1 %31, label %32, label %27

32:                                               ; preds = %28
  %33 = getelementptr inbounds nuw i8, ptr %29, i64 8
  %34 = load ptr, ptr %33, align 8
  br label %auth_get_plugin_name.exit25

auth_get_plugin_name.exit25:                      ; preds = %27, %32
  %spec.select.i24 = phi ptr [ %34, %32 ], [ @.str.4, %27 ]
  %35 = tail call ptr @xstrdup(ptr noundef %spec.select.i24) #12
  store ptr %35, ptr getelementptr inbounds nuw (i8, ptr @slurm_conf, i64 160), align 8
  br label %36

thread-pre-split:                                 ; preds = %24
  %.pr = load ptr, ptr getelementptr inbounds nuw (i8, ptr @slurm_conf, i64 160), align 8
  br label %36

36:                                               ; preds = %thread-pre-split, %auth_get_plugin_name.exit25
  %37 = phi ptr [ %.pr, %thread-pre-split ], [ %35, %auth_get_plugin_name.exit25 ]
  store ptr %37, ptr %2, align 8
  %.not14 = icmp eq ptr %37, null
  br i1 %.not14, label %.loopexit, label %38

38:                                               ; preds = %36
  %39 = load i8, ptr %37, align 1
  %40 = icmp eq i8 %39, 0
  br i1 %40, label %.loopexit, label %41

41:                                               ; preds = %38
  %42 = tail call zeroext i1 @run_in_daemon(ptr noundef nonnull @auth_g_init.daemon_run, ptr noundef nonnull @auth_g_init.daemon_set, ptr noundef nonnull @.str.11) #12
  br i1 %42, label %43, label %.lr.ph.preheader

43:                                               ; preds = %41
  %44 = load ptr, ptr getelementptr inbounds nuw (i8, ptr @slurm_conf, i64 136), align 8
  %45 = tail call ptr @xstrdup(ptr noundef %44) #12
  store ptr %45, ptr %1, align 8
  br label %.lr.ph.preheader

.lr.ph.preheader:                                 ; preds = %41, %43
  %.07 = phi ptr [ %45, %43 ], [ null, %41 ]
  store i32 0, ptr @g_context_num, align 4
  br label %.lr.ph

.lr.ph:                                           ; preds = %.lr.ph.preheader, %81
  %.130 = phi ptr [ %.2, %81 ], [ %.07, %.lr.ph.preheader ]
  %46 = load i32, ptr @g_context_num, align 4
  %47 = add nsw i32 %46, 1
  %48 = sext i32 %47 to i64
  %49 = call ptr @slurm_xrecalloc(ptr noundef nonnull @ops, i64 noundef %48, i64 noundef 128, i1 noundef zeroext true, i1 noundef zeroext false, ptr noundef nonnull @.str.12, i32 noundef 224, ptr noundef nonnull @__func__.auth_g_init) #12
  %50 = load i32, ptr @g_context_num, align 4
  %51 = add nsw i32 %50, 1
  %52 = sext i32 %51 to i64
  %53 = call ptr @slurm_xrecalloc(ptr noundef nonnull @g_context, i64 noundef %52, i64 noundef 24, i1 noundef zeroext true, i1 noundef zeroext false, ptr noundef nonnull @.str.12, i32 noundef 226, ptr noundef nonnull @__func__.auth_g_init) #12
  %54 = load ptr, ptr %2, align 8
  %55 = call i32 @xstrncmp(ptr noundef %54, ptr noundef nonnull @.str.13, i64 noundef 5) #12
  %.not16 = icmp eq i32 %55, 0
  %.pre = load ptr, ptr %2, align 8
  br i1 %.not16, label %56, label %58

56:                                               ; preds = %.lr.ph
  %57 = getelementptr inbounds nuw i8, ptr %.pre, i64 5
  store ptr %57, ptr %2, align 8
  br label %58

58:                                               ; preds = %56, %.lr.ph
  %59 = phi ptr [ %57, %56 ], [ %.pre, %.lr.ph ]
  %60 = call ptr (ptr, ...) @xstrdup_printf(ptr noundef nonnull @.str.14, ptr noundef %59) #12
  store ptr %60, ptr %2, align 8
  %61 = load ptr, ptr @ops, align 8
  %62 = load i32, ptr @g_context_num, align 4
  %63 = sext i32 %62 to i64
  %64 = getelementptr inbounds %struct.auth_ops_t, ptr %61, i64 %63
  %65 = call ptr @plugin_context_create(ptr noundef nonnull @.str.6, ptr noundef %60, ptr noundef %64, ptr noundef nonnull @syms, i64 noundef 128) #12
  %66 = load ptr, ptr @g_context, align 8
  %67 = load i32, ptr @g_context_num, align 4
  %68 = sext i32 %67 to i64
  %69 = getelementptr inbounds ptr, ptr %66, i64 %68
  store ptr %65, ptr %69, align 8
  %70 = load ptr, ptr @g_context, align 8
  %71 = getelementptr inbounds ptr, ptr %70, i64 %68
  %72 = load ptr, ptr %71, align 8
  %.not17 = icmp eq ptr %72, null
  br i1 %.not17, label %73, label %76

73:                                               ; preds = %58
  %74 = load ptr, ptr %2, align 8
  %75 = call i32 (ptr, ...) @error(ptr noundef nonnull @.str.15, ptr noundef nonnull @.str.6, ptr noundef %74) #12
  call void @slurm_xfree(ptr noundef nonnull %2) #12
  br label %.loopexit

76:                                               ; preds = %58
  %77 = add nsw i32 %67, 1
  store i32 %77, ptr @g_context_num, align 4
  call void @slurm_xfree(ptr noundef nonnull %2) #12
  %78 = load ptr, ptr %1, align 8
  %.not18 = icmp eq ptr %78, null
  br i1 %.not18, label %._crit_edge, label %79

._crit_edge:                                      ; preds = %76
  %.pre34 = load ptr, ptr %2, align 8
  br label %81

79:                                               ; preds = %76
  %80 = call ptr @strtok_r(ptr noundef %.130, ptr noundef nonnull @.str.16, ptr noundef nonnull %3) #12
  store ptr %80, ptr %2, align 8
  br label %81

81:                                               ; preds = %._crit_edge, %79
  %82 = phi ptr [ %80, %79 ], [ %.pre34, %._crit_edge ]
  %.2 = phi ptr [ null, %79 ], [ %.130, %._crit_edge ]
  %.not15 = icmp eq ptr %82, null
  br i1 %.not15, label %.loopexit, label %.lr.ph, !llvm.loop !14

.loopexit:                                        ; preds = %81, %36, %38, %7, %73
  %.0 = phi i32 [ 0, %7 ], [ 0, %38 ], [ -1, %73 ], [ 0, %36 ], [ 0, %81 ]
  %.b19 = load i1, ptr @at_forked, align 1
  br i1 %.b19, label %85, label %83

83:                                               ; preds = %.loopexit
  %84 = call i32 @pthread_atfork(ptr noundef null, ptr noundef null, ptr noundef nonnull @_atfork_child) #12
  store i1 true, ptr @at_forked, align 1
  br label %85

85:                                               ; preds = %83, %.loopexit
  call void @slurm_xfree(ptr noundef nonnull %1) #12
  %86 = call i32 @pthread_rwlock_unlock(ptr noundef nonnull @context_lock) #12
  %.not20 = icmp eq i32 %86, 0
  br i1 %.not20, label %89, label %87

87:                                               ; preds = %85
  %88 = tail call ptr @__errno_location() #13
  store i32 %86, ptr %88, align 4
  call void (ptr, ...) @fatal_abort(ptr noundef nonnull @.str.17, ptr noundef nonnull @__func__.auth_g_init) #11
  unreachable

89:                                               ; preds = %85
  call void @llvm.lifetime.end.p0(i64 8, ptr nonnull %3) #12
  call void @llvm.lifetime.end.p0(i64 8, ptr nonnull %2) #12
  call void @llvm.lifetime.end.p0(i64 8, ptr nonnull %1) #12
  ret i32 %.0
}